; Function Attrs: nounwind sspstrong uwtable
define dso_local void @bdrv_reset_dirty_bitmap(ptr noundef readonly captures(none) %bitmap, i64 noundef %offset, i64 noundef %bytes) local_unnamed_addr #0 {
entry:
  %0 = load ptr, ptr %bitmap, align 8
  %1 = load atomic i64, ptr @qemu_mutex_lock_func monotonic, align 8
  %2 = inttoptr i64 %1 to ptr
  %dirty_bitmap_mutex.i = getelementptr inbounds nuw i8, ptr %0, i64 16904
  tail call void %2(ptr noundef nonnull %dirty_bitmap_mutex.i, ptr noundef nonnull @.str.1, i32 noundef 66) #14
  %readonly.i.i = getelementptr inbounds nuw i8, ptr %bitmap, i64 56
  %3 = load i8, ptr %readonly.i.i, align 8
  %tobool.i.i = trunc i8 %3 to i1
  br i1 %tobool.i.i, label %if.else.i, label %bdrv_reset_dirty_bitmap_locked.exit

if.else.i:                                        ; preds = %entry
  tail call void @__assert_fail(ptr noundef nonnull @.str.21, ptr noundef nonnull @.str.1, i32 noundef 562, ptr noundef nonnull @__PRETTY_FUNCTION__.bdrv_reset_dirty_bitmap_locked) #15
  unreachable

bdrv_reset_dirty_bitmap_locked.exit:              ; preds = %entry
  %bitmap1.i = getelementptr inbounds nuw i8, ptr %bitmap, i64 8
  %4 = load ptr, ptr %bitmap1.i, align 8
  tail call void @hbitmap_reset(ptr noundef %4, i64 noundef %offset, i64 noundef %bytes) #14
  %5 = load ptr, ptr %bitmap, align 8
  %dirty_bitmap_mutex.i3 = getelementptr inbounds nuw i8, ptr %5, i64 16904
  tail call void @qemu_mutex_unlock_impl(ptr noundef nonnull %dirty_bitmap_mutex.i3, ptr noundef nonnull @.str.1, i32 noundef 71) #14
  ret void
}